; Function Attrs: mustprogress nofree norecurse nosync nounwind willreturn memory(argmem: read) uwtable
define noundef zeroext i1 @_Z30ir_vdw_might_be_zero_at_cutoffPK10t_inputrec(ptr noundef readonly captures(none) %0) local_unnamed_addr #15 {
  %2 = getelementptr inbounds nuw i8, ptr %0, i64 36
  %3 = load i32, ptr %2, align 4, !tbaa !260
  %4 = icmp eq i32 %3, 0
  br i1 %4, label %_Z24ir_vdw_is_zero_at_cutoffPK10t_inputrec.exit.thread, label %5

5:                                                ; preds = %1
  %6 = getelementptr inbounds nuw i8, ptr %0, i64 392
  %7 = load i32, ptr %6, align 8, !tbaa !261
  %.off.i.i = add i32 %7, -1
  %switch.i.i = icmp ult i32 %.off.i.i, 2
  br i1 %switch.i.i, label %_Z24ir_vdw_is_zero_at_cutoffPK10t_inputrec.exit.thread, label %_Z24ir_vdw_is_zero_at_cutoffPK10t_inputrec.exit

_Z24ir_vdw_is_zero_at_cutoffPK10t_inputrec.exit:  ; preds = %5
  %8 = getelementptr inbounds nuw i8, ptr %0, i64 396
  %9 = load i32, ptr %8, align 4, !tbaa !262
  %cond.i.not = icmp ne i32 %9, 2
  %10 = icmp eq i32 %7, 3
  %spec.select = or i1 %cond.i.not, %10
  br label %_Z24ir_vdw_is_zero_at_cutoffPK10t_inputrec.exit.thread

_Z24ir_vdw_is_zero_at_cutoffPK10t_inputrec.exit.thread: ; preds = %_Z24ir_vdw_is_zero_at_cutoffPK10t_inputrec.exit, %5, %1
  %11 = phi i1 [ true, %1 ], [ true, %5 ], [ %spec.select, %_Z24ir_vdw_is_zero_at_cutoffPK10t_inputrec.exit ]
  ret i1 %11
}